; Function Attrs: mustprogress uwtable
define hidden noundef zeroext i1 @_ZN6google8protobuf8internal14WireFormatLite11SkipMessageEPNS0_2io16CodedInputStreamE(ptr noundef %0) local_unnamed_addr #3 align 2 {
  %2 = getelementptr inbounds nuw i8, ptr %0, i64 8
  %3 = getelementptr inbounds nuw i8, ptr %0, i64 32
  br label %4

4:                                                ; preds = %19, %1
  %5 = load ptr, ptr %0, align 8, !tbaa !3
  %6 = load ptr, ptr %2, align 8, !tbaa !14
  %7 = icmp ult ptr %5, %6
  br i1 %7, label %8, label %14, !prof !15

8:                                                ; preds = %4
  %9 = load i8, ptr %5, align 1, !tbaa !16
  %10 = zext i8 %9 to i32
  %11 = icmp sgt i8 %9, -1
  br i1 %11, label %12, label %14

12:                                               ; preds = %8
  %13 = getelementptr inbounds nuw i8, ptr %5, i64 1
  store ptr %13, ptr %0, align 8, !tbaa !3
  br label %_ZN6google8protobuf2io16CodedInputStream16ReadTagNoLastTagEv.exit

14:                                               ; preds = %8, %4
  %.0.i = phi i32 [ %10, %8 ], [ 0, %4 ]
  %15 = tail call noundef i32 @_ZN6google8protobuf2io16CodedInputStream15ReadTagFallbackEj(ptr noundef nonnull align 8 dereferenceable(80) %0, i32 noundef %.0.i)
  br label %_ZN6google8protobuf2io16CodedInputStream16ReadTagNoLastTagEv.exit

_ZN6google8protobuf2io16CodedInputStream16ReadTagNoLastTagEv.exit: ; preds = %12, %14
  %.05.i = phi i32 [ %10, %12 ], [ %15, %14 ]
  store i32 %.05.i, ptr %3, align 8, !tbaa !18
  %16 = icmp eq i32 %.05.i, 0
  %17 = and i32 %.05.i, 7
  %18 = icmp eq i32 %17, 4
  %or.cond = or i1 %16, %18
  br i1 %or.cond, label %21, label %19

19:                                               ; preds = %_ZN6google8protobuf2io16CodedInputStream16ReadTagNoLastTagEv.exit
  %20 = tail call noundef zeroext i1 @_ZN6google8protobuf8internal14WireFormatLite9SkipFieldEPNS0_2io16CodedInputStreamEj(ptr noundef nonnull %0, i32 noundef %.05.i)
  br i1 %20, label %4, label %21

21:                                               ; preds = %_ZN6google8protobuf2io16CodedInputStream16ReadTagNoLastTagEv.exit, %19
  ret i1 %or.cond
}